; Function Attrs: mustprogress uwtable
define hidden void @_ZN3sls12array_plugin14saturate_constERN3euf6egraphEPNS1_5enodeE(ptr noundef nonnull align 8 dereferenceable(96) %0, ptr noundef nonnull align 8 dereferenceable(536) %1, ptr noundef %2) local_unnamed_addr #3 align 2 {
  %4 = getelementptr inbounds nuw i8, ptr %2, i64 64
  %5 = load ptr, ptr %4, align 8, !tbaa !189
  %6 = getelementptr inbounds nuw i8, ptr %5, i64 48
  %7 = load ptr, ptr %6, align 8, !tbaa !113
  %8 = icmp eq ptr %7, null
  br i1 %8, label %._crit_edge, label %_ZNK3euf13enode_parents3endEv.exit

_ZNK3euf13enode_parents3endEv.exit:               ; preds = %3
  %9 = getelementptr inbounds i8, ptr %7, i64 -4
  %10 = load i32, ptr %9, align 4, !tbaa !116
  %11 = zext i32 %10 to i64
  %12 = getelementptr inbounds nuw ptr, ptr %7, i64 %11
  %.not13 = icmp eq i32 %10, 0
  br i1 %.not13, label %._crit_edge, label %.lr.ph

.lr.ph:                                           ; preds = %_ZNK3euf13enode_parents3endEv.exit
  %13 = getelementptr inbounds nuw i8, ptr %0, i64 40
  br label %14

._crit_edge:                                      ; preds = %_ZNK17array_recognizers9is_selectEP4expr.exit.thread, %3, %_ZNK3euf13enode_parents3endEv.exit
  ret void

14:                                               ; preds = %.lr.ph, %_ZNK17array_recognizers9is_selectEP4expr.exit.thread
  %.014 = phi ptr [ %7, %.lr.ph ], [ %34, %_ZNK17array_recognizers9is_selectEP4expr.exit.thread ]
  %15 = load ptr, ptr %.014, align 8, !tbaa !129
  %16 = load ptr, ptr %15, align 8, !tbaa !180
  %17 = load i32, ptr %13, align 8, !tbaa !32
  %18 = getelementptr inbounds nuw i8, ptr %16, i64 4
  %19 = load i32, ptr %18, align 4
  %20 = and i32 %19, 65535
  %21 = icmp eq i32 %20, 0
  br i1 %21, label %22, label %_ZNK17array_recognizers9is_selectEP4expr.exit.thread

22:                                               ; preds = %14
  %23 = getelementptr inbounds nuw i8, ptr %16, i64 16
  %24 = load ptr, ptr %23, align 8, !tbaa !175
  %25 = getelementptr inbounds nuw i8, ptr %24, i64 24
  %26 = load ptr, ptr %25, align 8, !tbaa !136
  %.not.i.i.i.i = icmp eq ptr %26, null
  br i1 %.not.i.i.i.i, label %_ZNK17array_recognizers9is_selectEP4expr.exit.thread, label %_ZNK17array_recognizers9is_selectEP4expr.exit

_ZNK17array_recognizers9is_selectEP4expr.exit:    ; preds = %22
  %27 = load i32, ptr %26, align 8, !tbaa !140
  %28 = icmp eq i32 %27, %17
  %29 = getelementptr inbounds nuw i8, ptr %26, i64 4
  %30 = load i32, ptr %29, align 4
  %31 = icmp eq i32 %30, 1
  %32 = select i1 %28, i1 %31, i1 false
  br i1 %32, label %33, label %_ZNK17array_recognizers9is_selectEP4expr.exit.thread

33:                                               ; preds = %_ZNK17array_recognizers9is_selectEP4expr.exit
  tail call void @_ZN3sls12array_plugin17force_const_axiomERN3euf6egraphEPNS1_5enodeES5_(ptr noundef nonnull align 8 dereferenceable(96) %0, ptr noundef nonnull align 8 dereferenceable(536) %1, ptr noundef nonnull %2, ptr noundef nonnull %15)
  br label %_ZNK17array_recognizers9is_selectEP4expr.exit.thread

_ZNK17array_recognizers9is_selectEP4expr.exit.thread: ; preds = %22, %14, %33, %_ZNK17array_recognizers9is_selectEP4expr.exit
  %34 = getelementptr inbounds nuw i8, ptr %.014, i64 8
  %.not = icmp eq ptr %34, %12
  br i1 %.not, label %._crit_edge, label %14
}